target datalayout = "e-m:e-p270:32:32-p271:32:32-p272:64:64-i64:64-i128:128-f80:128-n8:16:32:64-S128"
target triple = "x86_64-pc-linux-gnu"

%struct.bio_st = type { ptr, ptr, ptr, ptr, ptr, i32, i32, i32, i32, i32, ptr, ptr, ptr, %struct.CRYPTO_REF_COUNT, i64, i64, %struct.crypto_ex_data_st }
%struct.CRYPTO_REF_COUNT = type { i32 }
%struct.crypto_ex_data_st = type { ptr, ptr }

@.str.2 = private unnamed_addr constant [33 x i8] c"../openssl/crypto/bio/bss_sock.c\00", align 1

; Function Attrs: nounwind uwtable
define internal i32 @sock_free(ptr noundef %0) #0 {
  %2 = alloca i32, align 4
  %3 = alloca ptr, align 8
  store ptr %0, ptr %3, align 8, !tbaa !7
  %4 = load ptr, ptr %3, align 8, !tbaa !7
  %5 = icmp eq ptr %4, null
  br i1 %5, label %6, label %7

6:                                                ; preds = %1
  store i32 0, ptr %2, align 4
  br label %33

7:                                                ; preds = %1
  %8 = load ptr, ptr %3, align 8, !tbaa !7
  %9 = getelementptr inbounds nuw %struct.bio_st, ptr %8, i32 0, i32 6
  %10 = load i32, ptr %9, align 4, !tbaa !26
  %11 = icmp ne i32 %10, 0
  br i1 %11, label %12, label %27

12:                                               ; preds = %7
  %13 = load ptr, ptr %3, align 8, !tbaa !7
  %14 = getelementptr inbounds nuw %struct.bio_st, ptr %13, i32 0, i32 5
  %15 = load i32, ptr %14, align 8, !tbaa !27
  %16 = icmp ne i32 %15, 0
  br i1 %16, label %17, label %22

17:                                               ; preds = %12
  %18 = load ptr, ptr %3, align 8, !tbaa !7
  %19 = getelementptr inbounds nuw %struct.bio_st, ptr %18, i32 0, i32 9
  %20 = load i32, ptr %19, align 8, !tbaa !12
  %21 = call i32 @BIO_closesocket(i32 noundef %20)
  br label %22

22:                                               ; preds = %17, %12
  %23 = load ptr, ptr %3, align 8, !tbaa !7
  %24 = getelementptr inbounds nuw %struct.bio_st, ptr %23, i32 0, i32 5
  store i32 0, ptr %24, align 8, !tbaa !27
  %25 = load ptr, ptr %3, align 8, !tbaa !7
  %26 = getelementptr inbounds nuw %struct.bio_st, ptr %25, i32 0, i32 7
  store i32 0, ptr %26, align 8, !tbaa !20
  br label %27

27:                                               ; preds = %22, %7
  %28 = load ptr, ptr %3, align 8, !tbaa !7
  %29 = getelementptr inbounds nuw %struct.bio_st, ptr %28, i32 0, i32 10
  %30 = load ptr, ptr %29, align 8, !tbaa !23
  call void @CRYPTO_free(ptr noundef %30, ptr noundef @.str.2, i32 noundef 111)
  %31 = load ptr, ptr %3, align 8, !tbaa !7
  %32 = getelementptr inbounds nuw %struct.bio_st, ptr %31, i32 0, i32 10
  store ptr null, ptr %32, align 8, !tbaa !23
  store i32 1, ptr %2, align 4
  br label %33

33:                                               ; preds = %27, %6
  %34 = load i32, ptr %2, align 4
  ret i32 %34
}