; Function Attrs: nounwind uwtable
define internal range(i32 0, 2) i32 @sock_free(ptr noundef captures(address_is_null) %0) #1 {
  %2 = icmp eq ptr %0, null
  br i1 %2, label %18, label %3

3:                                                ; preds = %1
  %4 = getelementptr inbounds nuw i8, ptr %0, i64 44
  %5 = load i32, ptr %4, align 4, !tbaa !20
  %.not = icmp eq i32 %5, 0
  br i1 %.not, label %15, label %6

6:                                                ; preds = %3
  %7 = getelementptr inbounds nuw i8, ptr %0, i64 40
  %8 = load i32, ptr %7, align 8, !tbaa !21
  %.not9 = icmp eq i32 %8, 0
  br i1 %.not9, label %13, label %9

9:                                                ; preds = %6
  %10 = getelementptr inbounds nuw i8, ptr %0, i64 56
  %11 = load i32, ptr %10, align 8, !tbaa !7
  %12 = tail call i32 @BIO_closesocket(i32 noundef %11) #8
  br label %13

13:                                               ; preds = %9, %6
  store i32 0, ptr %7, align 8, !tbaa !21
  %14 = getelementptr inbounds nuw i8, ptr %0, i64 48
  store i32 0, ptr %14, align 8, !tbaa !18
  br label %15

15:                                               ; preds = %13, %3
  %16 = getelementptr inbounds nuw i8, ptr %0, i64 64
  %17 = load ptr, ptr %16, align 8, !tbaa !19
  tail call void @CRYPTO_free(ptr noundef %17, ptr noundef nonnull @.str.2, i32 noundef 111) #8
  store ptr null, ptr %16, align 8, !tbaa !19
  br label %18

18:                                               ; preds = %1, %15
  %.0 = phi i32 [ 1, %15 ], [ 0, %1 ]
  ret i32 %.0
}